; Function Attrs: mustprogress nofree norecurse nosync nounwind willreturn memory(write, argmem: readwrite, inaccessiblemem: none) uwtable
define void @_ZN10colvardeps7provideEib(ptr nocapture noundef nonnull readonly align 8 dereferenceable(120) %0, i32 noundef %1, i1 noundef zeroext %2) local_unnamed_addr #9 align 2 {
  %4 = zext i1 %2 to i8
  %5 = getelementptr inbounds i8, ptr %0, i64 48
  %6 = sext i32 %1 to i64
  %7 = load ptr, ptr %5, align 8
  %8 = getelementptr inbounds %"struct.colvardeps::feature_state", ptr %7, i64 %6
  store i8 %4, ptr %8, align 8
  ret void
}